target datalayout = "e-m:e-p270:32:32-p271:32:32-p272:64:64-i64:64-i128:128-f80:128-n8:16:32:64-S128"
target triple = "x86_64-pc-linux-gnu"

%struct.archive_read_disk = type { %struct.archive, ptr, i8, i8, ptr, ptr, ptr, ptr, i32, ptr, ptr, ptr, ptr, ptr, ptr, ptr, ptr, ptr, ptr, ptr }
%struct.archive = type { i32, i32, ptr, i32, ptr, i32, i32, ptr, %struct.archive_string, ptr, i32, i32, ptr, ptr, i64, i64, i64, i8, i64 }
%struct.archive_string = type { ptr, i64, i64 }
%struct.tree = type { ptr, ptr, ptr, ptr, i32, i32, i32, %struct.archive_string, ptr, i64, i32, i32, i32, i32, i32, %struct.stat, %struct.stat, i32, i32, %struct.restore_time, ptr, ptr, i32, i32, i8, i8, ptr, ptr, i32, i32, i32, i32, i32, i32, i64, i64, ptr, i64 }
%struct.stat = type { i64, i64, i64, i32, i32, i32, i32, i64, i64, i64, i64, %struct.timespec, %struct.timespec, %struct.timespec, [3 x i64] }
%struct.timespec = type { i64, i64 }
%struct.restore_time = type { ptr, i64, i64, i64, i64, i32, i32 }

@.str.5 = private unnamed_addr constant [39 x i8] c"archive_read_disk_set_symlink_physical\00", align 1

; Function Attrs: nounwind uwtable
define internal void @setup_symlink_mode(ptr noundef %0, i8 noundef signext %1, i32 noundef %2) #0 {
  %4 = alloca ptr, align 8
  %5 = alloca i8, align 1
  %6 = alloca i32, align 4
  store ptr %0, ptr %4, align 8
  store i8 %1, ptr %5, align 1
  store i32 %2, ptr %6, align 4
  %7 = load i8, ptr %5, align 1
  %8 = load ptr, ptr %4, align 8
  %9 = getelementptr inbounds %struct.archive_read_disk, ptr %8, i32 0, i32 2
  store i8 %7, ptr %9, align 8
  %10 = load i32, ptr %6, align 4
  %11 = trunc i32 %10 to i8
  %12 = load ptr, ptr %4, align 8
  %13 = getelementptr inbounds %struct.archive_read_disk, ptr %12, i32 0, i32 3
  store i8 %11, ptr %13, align 1
  %14 = load ptr, ptr %4, align 8
  %15 = getelementptr inbounds %struct.archive_read_disk, ptr %14, i32 0, i32 4
  %16 = load ptr, ptr %15, align 8
  %17 = icmp ne ptr %16, null
  br i1 %17, label %18, label %33

18:                                               ; preds = %3
  %19 = load ptr, ptr %4, align 8
  %20 = getelementptr inbounds %struct.archive_read_disk, ptr %19, i32 0, i32 2
  %21 = load i8, ptr %20, align 8
  %22 = load ptr, ptr %4, align 8
  %23 = getelementptr inbounds %struct.archive_read_disk, ptr %22, i32 0, i32 4
  %24 = load ptr, ptr %23, align 8
  %25 = getelementptr inbounds %struct.tree, ptr %24, i32 0, i32 24
  store i8 %21, ptr %25, align 8
  %26 = load ptr, ptr %4, align 8
  %27 = getelementptr inbounds %struct.archive_read_disk, ptr %26, i32 0, i32 2
  %28 = load i8, ptr %27, align 8
  %29 = load ptr, ptr %4, align 8
  %30 = getelementptr inbounds %struct.archive_read_disk, ptr %29, i32 0, i32 4
  %31 = load ptr, ptr %30, align 8
  %32 = getelementptr inbounds %struct.tree, ptr %31, i32 0, i32 25
  store i8 %28, ptr %32, align 1
  br label %33

33:                                               ; preds = %18, %3
  ret void
}

; Function Attrs: nounwind uwtable
define dso_local i32 @archive_read_disk_set_symlink_physical(ptr noundef %0) #0 {
  %2 = alloca i32, align 4
  %3 = alloca ptr, align 8
  %4 = alloca ptr, align 8
  %5 = alloca i32, align 4
  store ptr %0, ptr %3, align 8
  %6 = load ptr, ptr %3, align 8
  store ptr %6, ptr %4, align 8
  br label %7

7:                                                ; preds = %1
  %8 = load ptr, ptr %3, align 8
  %9 = call i32 @__archive_check_magic(ptr noundef %8, i32 noundef 195932357, i32 noundef 32767, ptr noundef @.str.5)
  store i32 %9, ptr %5, align 4
  %10 = load i32, ptr %5, align 4
  %11 = icmp eq i32 %10, -30
  br i1 %11, label %12, label %13

12:                                               ; preds = %7
  store i32 -30, ptr %2, align 4
  br label %16

13:                                               ; preds = %7
  br label %14

14:                                               ; preds = %13
  %15 = load ptr, ptr %4, align 8
  call void @setup_symlink_mode(ptr noundef %15, i8 noundef signext 80, i32 noundef 0)
  store i32 0, ptr %2, align 4
  br label %16

16:                                               ; preds = %14, %12
  %17 = load i32, ptr %2, align 4
  ret i32 %17
}